; ModuleID = '55/908.c'
source_filename = "55/908.c"
target datalayout = "e-m:e-p270:32:32-p271:32:32-p272:64:64-i64:64-f80:128-n8:16:32:64-S128"
target triple = "x86_64-pc-linux-gnu"

@.str = private unnamed_addr constant [9 x i8] c"%d %s %d\00", align 1
@.str.1 = private unnamed_addr constant [3 x i8] c"%d\00", align 1

; Function Attrs: noinline nounwind uwtable
define dso_local i32 @main() #0 {
  %1 = alloca i32, align 4
  %2 = alloca i32, align 4
  %3 = alloca i32, align 4
  %4 = alloca [100 x i8], align 16
  %5 = alloca [100 x i32], align 16
  %6 = alloca [100 x i32], align 16
  %7 = alloca i32, align 4
  %8 = alloca i32, align 4
  %9 = alloca i32, align 4
  store i32 0, i32* %1, align 4
  %10 = getelementptr inbounds [100 x i8], [100 x i8]* %4, i64 0, i64 0
  %11 = call i32 (i8*, ...) @__isoc99_scanf(i8* getelementptr inbounds ([9 x i8], [9 x i8]* @.str, i64 0, i64 0), i32* %2, i8* %10, i32* %3)
  store i32 0, i32* %7, align 4
  store i32 0, i32* %8, align 4
  br label %12

12:                                               ; preds = %109, %0
  %13 = load i32, i32* %8, align 4
  %14 = icmp slt i32 %13, 100
  br i1 %14, label %15, label %22

15:                                               ; preds = %12
  %16 = load i32, i32* %8, align 4
  %17 = sext i32 %16 to i64
  %18 = getelementptr inbounds [100 x i8], [100 x i8]* %4, i64 0, i64 %17
  %19 = load i8, i8* %18, align 1
  %20 = sext i8 %19 to i32
  %21 = icmp ne i32 %20, 0
  br label %22

22:                                               ; preds = %15, %12
  %23 = phi i1 [ false, %12 ], [ %21, %15 ]
  br i1 %23, label %24, label %112

24:                                               ; preds = %22
  %25 = load i32, i32* %8, align 4
  %26 = sext i32 %25 to i64
  %27 = getelementptr inbounds [100 x i8], [100 x i8]* %4, i64 0, i64 %26
  %28 = load i8, i8* %27, align 1
  %29 = sext i8 %28 to i32
  %30 = icmp sge i32 %29, 97
  br i1 %30, label %31, label %49

31:                                               ; preds = %24
  %32 = load i32, i32* %8, align 4
  %33 = sext i32 %32 to i64
  %34 = getelementptr inbounds [100 x i8], [100 x i8]* %4, i64 0, i64 %33
  %35 = load i8, i8* %34, align 1
  %36 = sext i8 %35 to i32
  %37 = icmp sle i32 %36, 122
  br i1 %37, label %38, label %49

38:                                               ; preds = %31
  %39 = load i32, i32* %8, align 4
  %40 = sext i32 %39 to i64
  %41 = getelementptr inbounds [100 x i8], [100 x i8]* %4, i64 0, i64 %40
  %42 = load i8, i8* %41, align 1
  %43 = sext i8 %42 to i32
  %44 = sub nsw i32 %43, 97
  %45 = add nsw i32 %44, 10
  %46 = load i32, i32* %8, align 4
  %47 = sext i32 %46 to i64
  %48 = getelementptr inbounds [100 x i32], [100 x i32]* %5, i64 0, i64 %47
  store i32 %45, i32* %48, align 4
  br label %100

49:                                               ; preds = %31, %24
  %50 = load i32, i32* %8, align 4
  %51 = sext i32 %50 to i64
  %52 = getelementptr inbounds [100 x i8], [100 x i8]* %4, i64 0, i64 %51
  %53 = load i8, i8* %52, align 1
  %54 = sext i8 %53 to i32
  %55 = icmp sge i32 %54, 65
  br i1 %55, label %56, label %74

56:                                               ; preds = %49
  %57 = load i32, i32* %8, align 4
  %58 = sext i32 %57 to i64
  %59 = getelementptr inbounds [100 x i8], [100 x i8]* %4, i64 0, i64 %58
  %60 = load i8, i8* %59, align 1
  %61 = sext i8 %60 to i32
  %62 = icmp sle i32 %61, 90
  br i1 %62, label %63, label %74

63:                                               ; preds = %56
  %64 = load i32, i32* %8, align 4
  %65 = sext i32 %64 to i64
  %66 = getelementptr inbounds [100 x i8], [100 x i8]* %4, i64 0, i64 %65
  %67 = load i8, i8* %66, align 1
  %68 = sext i8 %67 to i32
  %69 = sub nsw i32 %68, 65
  %70 = add nsw i32 %69, 10
  %71 = load i32, i32* %8, align 4
  %72 = sext i32 %71 to i64
  %73 = getelementptr inbounds [100 x i32], [100 x i32]* %5, i64 0, i64 %72
  store i32 %70, i32* %73, align 4
  br label %99

74:                                               ; preds = %56, %49
  %75 = load i32, i32* %8, align 4
  %76 = sext i32 %75 to i64
  %77 = getelementptr inbounds [100 x i8], [100 x i8]* %4, i64 0, i64 %76
  %78 = load i8, i8* %77, align 1
  %79 = sext i8 %78 to i32
  %80 = icmp sge i32 %79, 48
  br i1 %80, label %81, label %98

81:                                               ; preds = %74
  %82 = load i32, i32* %8, align 4
  %83 = sext i32 %82 to i64
  %84 = getelementptr inbounds [100 x i8], [100 x i8]* %4, i64 0, i64 %83
  %85 = load i8, i8* %84, align 1
  %86 = sext i8 %85 to i32
  %87 = icmp sle i32 %86, 57
  br i1 %87, label %88, label %98

88:                                               ; preds = %81
  %89 = load i32, i32* %8, align 4
  %90 = sext i32 %89 to i64
  %91 = getelementptr inbounds [100 x i8], [100 x i8]* %4, i64 0, i64 %90
  %92 = load i8, i8* %91, align 1
  %93 = sext i8 %92 to i32
  %94 = sub nsw i32 %93, 48
  %95 = load i32, i32* %8, align 4
  %96 = sext i32 %95 to i64
  %97 = getelementptr inbounds [100 x i32], [100 x i32]* %5, i64 0, i64 %96
  store i32 %94, i32* %97, align 4
  br label %98

98:                                               ; preds = %88, %81, %74
  br label %99

99:                                               ; preds = %98, %63
  br label %100

100:                                              ; preds = %99, %38
  %101 = load i32, i32* %7, align 4
  %102 = load i32, i32* %2, align 4
  %103 = mul nsw i32 %101, %102
  %104 = load i32, i32* %8, align 4
  %105 = sext i32 %104 to i64
  %106 = getelementptr inbounds [100 x i32], [100 x i32]* %5, i64 0, i64 %105
  %107 = load i32, i32* %106, align 4
  %108 = add nsw i32 %103, %107
  store i32 %108, i32* %7, align 4
  br label %109

109:                                              ; preds = %100
  %110 = load i32, i32* %8, align 4
  %111 = add nsw i32 %110, 1
  store i32 %111, i32* %8, align 4
  br label %12

112:                                              ; preds = %22
  %113 = load i32, i32* %7, align 4
  %114 = icmp eq i32 %113, 0
  br i1 %114, label %115, label %118

115:                                              ; preds = %112
  %116 = load i32, i32* %7, align 4
  %117 = call i32 (i8*, ...) @printf(i8* getelementptr inbounds ([3 x i8], [3 x i8]* @.str.1, i64 0, i64 0), i32 %116)
  br label %118

118:                                              ; preds = %115, %112
  store i32 0, i32* %8, align 4
  br label %119

119:                                              ; preds = %137, %118
  %120 = load i32, i32* %8, align 4
  %121 = icmp slt i32 %120, 100
  br i1 %121, label %122, label %125

122:                                              ; preds = %119
  %123 = load i32, i32* %7, align 4
  %124 = icmp ne i32 %123, 0
  br label %125

125:                                              ; preds = %122, %119
  %126 = phi i1 [ false, %119 ], [ %124, %122 ]
  br i1 %126, label %127, label %140

127:                                              ; preds = %125
  %128 = load i32, i32* %7, align 4
  %129 = load i32, i32* %3, align 4
  %130 = srem i32 %128, %129
  %131 = load i32, i32* %8, align 4
  %132 = sext i32 %131 to i64
  %133 = getelementptr inbounds [100 x i32], [100 x i32]* %6, i64 0, i64 %132
  store i32 %130, i32* %133, align 4
  %134 = load i32, i32* %7, align 4
  %135 = load i32, i32* %3, align 4
  %136 = sdiv i32 %134, %135
  store i32 %136, i32* %7, align 4
  br label %137

137:                                              ; preds = %127
  %138 = load i32, i32* %8, align 4
  %139 = add nsw i32 %138, 1
  store i32 %139, i32* %8, align 4
  br label %119

140:                                              ; preds = %125
  store i32 0, i32* %9, align 4
  br label %141

141:                                              ; preds = %201, %140
  %142 = load i32, i32* %9, align 4
  %143 = load i32, i32* %8, align 4
  %144 = icmp slt i32 %142, %143
  br i1 %144, label %145, label %204

145:                                              ; preds = %141
  %146 = load i32, i32* %8, align 4
  %147 = load i32, i32* %9, align 4
  %148 = sub nsw i32 %146, %147
  %149 = sub nsw i32 %148, 1
  %150 = sext i32 %149 to i64
  %151 = getelementptr inbounds [100 x i32], [100 x i32]* %6, i64 0, i64 %150
  %152 = load i32, i32* %151, align 4
  %153 = icmp sle i32 %152, 9
  br i1 %153, label %154, label %176

154:                                              ; preds = %145
  %155 = load i32, i32* %8, align 4
  %156 = load i32, i32* %9, align 4
  %157 = sub nsw i32 %155, %156
  %158 = sub nsw i32 %157, 1
  %159 = sext i32 %158 to i64
  %160 = getelementptr inbounds [100 x i32], [100 x i32]* %6, i64 0, i64 %159
  %161 = load i32, i32* %160, align 4
  %162 = icmp sge i32 %161, 0
  br i1 %162, label %163, label %176

163:                                              ; preds = %154
  %164 = load i32, i32* %8, align 4
  %165 = load i32, i32* %9, align 4
  %166 = sub nsw i32 %164, %165
  %167 = sub nsw i32 %166, 1
  %168 = sext i32 %167 to i64
  %169 = getelementptr inbounds [100 x i32], [100 x i32]* %6, i64 0, i64 %168
  %170 = load i32, i32* %169, align 4
  %171 = add nsw i32 %170, 48
  %172 = trunc i32 %171 to i8
  %173 = load i32, i32* %9, align 4
  %174 = sext i32 %173 to i64
  %175 = getelementptr inbounds [100 x i8], [100 x i8]* %4, i64 0, i64 %174
  store i8 %172, i8* %175, align 1
  br label %200

176:                                              ; preds = %154, %145
  %177 = load i32, i32* %8, align 4
  %178 = load i32, i32* %9, align 4
  %179 = sub nsw i32 %177, %178
  %180 = sub nsw i32 %179, 1
  %181 = sext i32 %180 to i64
  %182 = getelementptr inbounds [100 x i32], [100 x i32]* %6, i64 0, i64 %181
  %183 = load i32, i32* %182, align 4
  %184 = icmp sge i32 %183, 10
  br i1 %184, label %185, label %199

185:                                              ; preds = %176
  %186 = load i32, i32* %8, align 4
  %187 = load i32, i32* %9, align 4
  %188 = sub nsw i32 %186, %187
  %189 = sub nsw i32 %188, 1
  %190 = sext i32 %189 to i64
  %191 = getelementptr inbounds [100 x i32], [100 x i32]* %6, i64 0, i64 %190
  %192 = load i32, i32* %191, align 4
  %193 = sub nsw i32 %192, 10
  %194 = add nsw i32 %193, 65
  %195 = trunc i32 %194 to i8
  %196 = load i32, i32* %9, align 4
  %197 = sext i32 %196 to i64
  %198 = getelementptr inbounds [100 x i8], [100 x i8]* %4, i64 0, i64 %197
  store i8 %195, i8* %198, align 1
  br label %199

199:                                              ; preds = %185, %176
  br label %200

200:                                              ; preds = %199, %163
  br label %201

201:                                              ; preds = %200
  %202 = load i32, i32* %9, align 4
  %203 = add nsw i32 %202, 1
  store i32 %203, i32* %9, align 4
  br label %141

204:                                              ; preds = %141
  %205 = load i32, i32* %8, align 4
  %206 = sext i32 %205 to i64
  %207 = getelementptr inbounds [100 x i8], [100 x i8]* %4, i64 0, i64 %206
  store i8 0, i8* %207, align 1
  %208 = getelementptr inbounds [100 x i8], [100 x i8]* %4, i64 0, i64 0
  %209 = call i32 @puts(i8* %208)
  %210 = call i32 @getchar()
  %211 = call i32 @getchar()
  %212 = call i32 @getchar()
  %213 = call i32 @getchar()
  %214 = load i32, i32* %1, align 4
  ret i32 %214
}

declare dso_local i32 @__isoc99_scanf(i8*, ...) #1

declare dso_local i32 @printf(i8*, ...) #1

declare dso_local i32 @puts(i8*) #1

declare dso_local i32 @getchar() #1


!llvm.module.flags = !{!0}
!llvm.ident = !{!1}

!0 = !{i32 1, !"wchar_size", i32 4}
!1 = !{!"clang version 10.0.0-4ubuntu1 "}
